; ModuleID = '64/3442.c'
source_filename = "64/3442.c"
target datalayout = "e-m:e-p270:32:32-p271:32:32-p272:64:64-i64:64-f80:128-n8:16:32:64-S128"
target triple = "x86_64-pc-linux-gnu"

@.str = private unnamed_addr constant [4 x i8] c"%d\0A\00", align 1
@.str.1 = private unnamed_addr constant [9 x i8] c"%d %d %d\00", align 1
@.str.2 = private unnamed_addr constant [29 x i8] c"(%d,%d,%d)-(%d,%d,%d)=%.2lf\0A\00", align 1

; Function Attrs: noinline nounwind uwtable
define dso_local i32 @main() #0 {
  %1 = alloca i32, align 4
  %2 = alloca i32, align 4
  %3 = alloca i32, align 4
  %4 = alloca [101 x i32], align 16
  %5 = alloca [101 x i32], align 16
  %6 = alloca [101 x i32], align 16
  %7 = alloca [101 x i32], align 16
  %8 = alloca [101 x i32], align 16
  %9 = alloca i32, align 4
  %10 = alloca [101 x double], align 16
  %11 = alloca i32, align 4
  %12 = alloca i32, align 4
  %13 = alloca double, align 8
  store i32 0, i32* %1, align 4
  store i32 0, i32* %3, align 4
  %14 = call i32 (i8*, ...) @__isoc99_scanf(i8* getelementptr inbounds ([4 x i8], [4 x i8]* @.str, i64 0, i64 0), i32* %2)
  store i32 0, i32* %9, align 4
  br label %15

15:                                               ; preds = %30, %0
  %16 = load i32, i32* %9, align 4
  %17 = load i32, i32* %2, align 4
  %18 = icmp slt i32 %16, %17
  br i1 %18, label %19, label %33

19:                                               ; preds = %15
  %20 = load i32, i32* %9, align 4
  %21 = sext i32 %20 to i64
  %22 = getelementptr inbounds [101 x i32], [101 x i32]* %4, i64 0, i64 %21
  %23 = load i32, i32* %9, align 4
  %24 = sext i32 %23 to i64
  %25 = getelementptr inbounds [101 x i32], [101 x i32]* %5, i64 0, i64 %24
  %26 = load i32, i32* %9, align 4
  %27 = sext i32 %26 to i64
  %28 = getelementptr inbounds [101 x i32], [101 x i32]* %6, i64 0, i64 %27
  %29 = call i32 (i8*, ...) @__isoc99_scanf(i8* getelementptr inbounds ([9 x i8], [9 x i8]* @.str.1, i64 0, i64 0), i32* %22, i32* %25, i32* %28)
  br label %30

30:                                               ; preds = %19
  %31 = load i32, i32* %9, align 4
  %32 = add nsw i32 %31, 1
  store i32 %32, i32* %9, align 4
  br label %15

33:                                               ; preds = %15
  store i32 0, i32* %11, align 4
  br label %34

34:                                               ; preds = %133, %33
  %35 = load i32, i32* %11, align 4
  %36 = load i32, i32* %2, align 4
  %37 = sub nsw i32 %36, 1
  %38 = icmp slt i32 %35, %37
  br i1 %38, label %39, label %136

39:                                               ; preds = %34
  %40 = load i32, i32* %11, align 4
  %41 = add nsw i32 %40, 1
  store i32 %41, i32* %9, align 4
  br label %42

42:                                               ; preds = %129, %39
  %43 = load i32, i32* %9, align 4
  %44 = load i32, i32* %2, align 4
  %45 = icmp slt i32 %43, %44
  br i1 %45, label %46, label %132

46:                                               ; preds = %42
  %47 = load i32, i32* %11, align 4
  %48 = sext i32 %47 to i64
  %49 = getelementptr inbounds [101 x i32], [101 x i32]* %4, i64 0, i64 %48
  %50 = load i32, i32* %49, align 4
  %51 = load i32, i32* %9, align 4
  %52 = sext i32 %51 to i64
  %53 = getelementptr inbounds [101 x i32], [101 x i32]* %4, i64 0, i64 %52
  %54 = load i32, i32* %53, align 4
  %55 = sub nsw i32 %50, %54
  %56 = sitofp i32 %55 to double
  %57 = fmul double 1.000000e+00, %56
  %58 = load i32, i32* %11, align 4
  %59 = sext i32 %58 to i64
  %60 = getelementptr inbounds [101 x i32], [101 x i32]* %4, i64 0, i64 %59
  %61 = load i32, i32* %60, align 4
  %62 = load i32, i32* %9, align 4
  %63 = sext i32 %62 to i64
  %64 = getelementptr inbounds [101 x i32], [101 x i32]* %4, i64 0, i64 %63
  %65 = load i32, i32* %64, align 4
  %66 = sub nsw i32 %61, %65
  %67 = sitofp i32 %66 to double
  %68 = fmul double %57, %67
  %69 = load i32, i32* %11, align 4
  %70 = sext i32 %69 to i64
  %71 = getelementptr inbounds [101 x i32], [101 x i32]* %5, i64 0, i64 %70
  %72 = load i32, i32* %71, align 4
  %73 = load i32, i32* %9, align 4
  %74 = sext i32 %73 to i64
  %75 = getelementptr inbounds [101 x i32], [101 x i32]* %5, i64 0, i64 %74
  %76 = load i32, i32* %75, align 4
  %77 = sub nsw i32 %72, %76
  %78 = sitofp i32 %77 to double
  %79 = fmul double 1.000000e+00, %78
  %80 = load i32, i32* %11, align 4
  %81 = sext i32 %80 to i64
  %82 = getelementptr inbounds [101 x i32], [101 x i32]* %5, i64 0, i64 %81
  %83 = load i32, i32* %82, align 4
  %84 = load i32, i32* %9, align 4
  %85 = sext i32 %84 to i64
  %86 = getelementptr inbounds [101 x i32], [101 x i32]* %5, i64 0, i64 %85
  %87 = load i32, i32* %86, align 4
  %88 = sub nsw i32 %83, %87
  %89 = sitofp i32 %88 to double
  %90 = fmul double %79, %89
  %91 = fadd double %68, %90
  %92 = load i32, i32* %11, align 4
  %93 = sext i32 %92 to i64
  %94 = getelementptr inbounds [101 x i32], [101 x i32]* %6, i64 0, i64 %93
  %95 = load i32, i32* %94, align 4
  %96 = load i32, i32* %9, align 4
  %97 = sext i32 %96 to i64
  %98 = getelementptr inbounds [101 x i32], [101 x i32]* %6, i64 0, i64 %97
  %99 = load i32, i32* %98, align 4
  %100 = sub nsw i32 %95, %99
  %101 = sitofp i32 %100 to double
  %102 = fmul double 1.000000e+00, %101
  %103 = load i32, i32* %11, align 4
  %104 = sext i32 %103 to i64
  %105 = getelementptr inbounds [101 x i32], [101 x i32]* %6, i64 0, i64 %104
  %106 = load i32, i32* %105, align 4
  %107 = load i32, i32* %9, align 4
  %108 = sext i32 %107 to i64
  %109 = getelementptr inbounds [101 x i32], [101 x i32]* %6, i64 0, i64 %108
  %110 = load i32, i32* %109, align 4
  %111 = sub nsw i32 %106, %110
  %112 = sitofp i32 %111 to double
  %113 = fmul double %102, %112
  %114 = fadd double %91, %113
  %115 = call double @sqrt(double %114) #3
  %116 = load i32, i32* %3, align 4
  %117 = sext i32 %116 to i64
  %118 = getelementptr inbounds [101 x double], [101 x double]* %10, i64 0, i64 %117
  store double %115, double* %118, align 8
  %119 = load i32, i32* %11, align 4
  %120 = load i32, i32* %3, align 4
  %121 = sext i32 %120 to i64
  %122 = getelementptr inbounds [101 x i32], [101 x i32]* %7, i64 0, i64 %121
  store i32 %119, i32* %122, align 4
  %123 = load i32, i32* %9, align 4
  %124 = load i32, i32* %3, align 4
  %125 = sext i32 %124 to i64
  %126 = getelementptr inbounds [101 x i32], [101 x i32]* %8, i64 0, i64 %125
  store i32 %123, i32* %126, align 4
  %127 = load i32, i32* %3, align 4
  %128 = add nsw i32 %127, 1
  store i32 %128, i32* %3, align 4
  br label %129

129:                                              ; preds = %46
  %130 = load i32, i32* %9, align 4
  %131 = add nsw i32 %130, 1
  store i32 %131, i32* %9, align 4
  br label %42

132:                                              ; preds = %42
  br label %133

133:                                              ; preds = %132
  %134 = load i32, i32* %11, align 4
  %135 = add nsw i32 %134, 1
  store i32 %135, i32* %11, align 4
  br label %34

136:                                              ; preds = %34
  store i32 1, i32* %12, align 4
  br label %137

137:                                              ; preds = %220, %136
  %138 = load i32, i32* %12, align 4
  %139 = load i32, i32* %3, align 4
  %140 = icmp sle i32 %138, %139
  br i1 %140, label %141, label %223

141:                                              ; preds = %137
  store i32 0, i32* %9, align 4
  br label %142

142:                                              ; preds = %216, %141
  %143 = load i32, i32* %9, align 4
  %144 = load i32, i32* %3, align 4
  %145 = load i32, i32* %12, align 4
  %146 = sub nsw i32 %144, %145
  %147 = icmp slt i32 %143, %146
  br i1 %147, label %148, label %219

148:                                              ; preds = %142
  %149 = load i32, i32* %9, align 4
  %150 = sext i32 %149 to i64
  %151 = getelementptr inbounds [101 x double], [101 x double]* %10, i64 0, i64 %150
  %152 = load double, double* %151, align 8
  %153 = load i32, i32* %9, align 4
  %154 = add nsw i32 %153, 1
  %155 = sext i32 %154 to i64
  %156 = getelementptr inbounds [101 x double], [101 x double]* %10, i64 0, i64 %155
  %157 = load double, double* %156, align 8
  %158 = fcmp olt double %152, %157
  br i1 %158, label %159, label %215

159:                                              ; preds = %148
  %160 = load i32, i32* %9, align 4
  %161 = add nsw i32 %160, 1
  %162 = sext i32 %161 to i64
  %163 = getelementptr inbounds [101 x double], [101 x double]* %10, i64 0, i64 %162
  %164 = load double, double* %163, align 8
  store double %164, double* %13, align 8
  %165 = load i32, i32* %9, align 4
  %166 = sext i32 %165 to i64
  %167 = getelementptr inbounds [101 x double], [101 x double]* %10, i64 0, i64 %166
  %168 = load double, double* %167, align 8
  %169 = load i32, i32* %9, align 4
  %170 = add nsw i32 %169, 1
  %171 = sext i32 %170 to i64
  %172 = getelementptr inbounds [101 x double], [101 x double]* %10, i64 0, i64 %171
  store double %168, double* %172, align 8
  %173 = load double, double* %13, align 8
  %174 = load i32, i32* %9, align 4
  %175 = sext i32 %174 to i64
  %176 = getelementptr inbounds [101 x double], [101 x double]* %10, i64 0, i64 %175
  store double %173, double* %176, align 8
  %177 = load i32, i32* %9, align 4
  %178 = add nsw i32 %177, 1
  %179 = sext i32 %178 to i64
  %180 = getelementptr inbounds [101 x i32], [101 x i32]* %7, i64 0, i64 %179
  %181 = load i32, i32* %180, align 4
  %182 = sitofp i32 %181 to double
  store double %182, double* %13, align 8
  %183 = load i32, i32* %9, align 4
  %184 = sext i32 %183 to i64
  %185 = getelementptr inbounds [101 x i32], [101 x i32]* %7, i64 0, i64 %184
  %186 = load i32, i32* %185, align 4
  %187 = load i32, i32* %9, align 4
  %188 = add nsw i32 %187, 1
  %189 = sext i32 %188 to i64
  %190 = getelementptr inbounds [101 x i32], [101 x i32]* %7, i64 0, i64 %189
  store i32 %186, i32* %190, align 4
  %191 = load double, double* %13, align 8
  %192 = fptosi double %191 to i32
  %193 = load i32, i32* %9, align 4
  %194 = sext i32 %193 to i64
  %195 = getelementptr inbounds [101 x i32], [101 x i32]* %7, i64 0, i64 %194
  store i32 %192, i32* %195, align 4
  %196 = load i32, i32* %9, align 4
  %197 = add nsw i32 %196, 1
  %198 = sext i32 %197 to i64
  %199 = getelementptr inbounds [101 x i32], [101 x i32]* %8, i64 0, i64 %198
  %200 = load i32, i32* %199, align 4
  %201 = sitofp i32 %200 to double
  store double %201, double* %13, align 8
  %202 = load i32, i32* %9, align 4
  %203 = sext i32 %202 to i64
  %204 = getelementptr inbounds [101 x i32], [101 x i32]* %8, i64 0, i64 %203
  %205 = load i32, i32* %204, align 4
  %206 = load i32, i32* %9, align 4
  %207 = add nsw i32 %206, 1
  %208 = sext i32 %207 to i64
  %209 = getelementptr inbounds [101 x i32], [101 x i32]* %8, i64 0, i64 %208
  store i32 %205, i32* %209, align 4
  %210 = load double, double* %13, align 8
  %211 = fptosi double %210 to i32
  %212 = load i32, i32* %9, align 4
  %213 = sext i32 %212 to i64
  %214 = getelementptr inbounds [101 x i32], [101 x i32]* %8, i64 0, i64 %213
  store i32 %211, i32* %214, align 4
  br label %215

215:                                              ; preds = %159, %148
  br label %216

216:                                              ; preds = %215
  %217 = load i32, i32* %9, align 4
  %218 = add nsw i32 %217, 1
  store i32 %218, i32* %9, align 4
  br label %142

219:                                              ; preds = %142
  br label %220

220:                                              ; preds = %219
  %221 = load i32, i32* %12, align 4
  %222 = add nsw i32 %221, 1
  store i32 %222, i32* %12, align 4
  br label %137

223:                                              ; preds = %137
  store i32 0, i32* %9, align 4
  br label %224

224:                                              ; preds = %276, %223
  %225 = load i32, i32* %9, align 4
  %226 = load i32, i32* %3, align 4
  %227 = icmp slt i32 %225, %226
  br i1 %227, label %228, label %279

228:                                              ; preds = %224
  %229 = load i32, i32* %9, align 4
  %230 = sext i32 %229 to i64
  %231 = getelementptr inbounds [101 x i32], [101 x i32]* %7, i64 0, i64 %230
  %232 = load i32, i32* %231, align 4
  %233 = sext i32 %232 to i64
  %234 = getelementptr inbounds [101 x i32], [101 x i32]* %4, i64 0, i64 %233
  %235 = load i32, i32* %234, align 4
  %236 = load i32, i32* %9, align 4
  %237 = sext i32 %236 to i64
  %238 = getelementptr inbounds [101 x i32], [101 x i32]* %7, i64 0, i64 %237
  %239 = load i32, i32* %238, align 4
  %240 = sext i32 %239 to i64
  %241 = getelementptr inbounds [101 x i32], [101 x i32]* %5, i64 0, i64 %240
  %242 = load i32, i32* %241, align 4
  %243 = load i32, i32* %9, align 4
  %244 = sext i32 %243 to i64
  %245 = getelementptr inbounds [101 x i32], [101 x i32]* %7, i64 0, i64 %244
  %246 = load i32, i32* %245, align 4
  %247 = sext i32 %246 to i64
  %248 = getelementptr inbounds [101 x i32], [101 x i32]* %6, i64 0, i64 %247
  %249 = load i32, i32* %248, align 4
  %250 = load i32, i32* %9, align 4
  %251 = sext i32 %250 to i64
  %252 = getelementptr inbounds [101 x i32], [101 x i32]* %8, i64 0, i64 %251
  %253 = load i32, i32* %252, align 4
  %254 = sext i32 %253 to i64
  %255 = getelementptr inbounds [101 x i32], [101 x i32]* %4, i64 0, i64 %254
  %256 = load i32, i32* %255, align 4
  %257 = load i32, i32* %9, align 4
  %258 = sext i32 %257 to i64
  %259 = getelementptr inbounds [101 x i32], [101 x i32]* %8, i64 0, i64 %258
  %260 = load i32, i32* %259, align 4
  %261 = sext i32 %260 to i64
  %262 = getelementptr inbounds [101 x i32], [101 x i32]* %5, i64 0, i64 %261
  %263 = load i32, i32* %262, align 4
  %264 = load i32, i32* %9, align 4
  %265 = sext i32 %264 to i64
  %266 = getelementptr inbounds [101 x i32], [101 x i32]* %8, i64 0, i64 %265
  %267 = load i32, i32* %266, align 4
  %268 = sext i32 %267 to i64
  %269 = getelementptr inbounds [101 x i32], [101 x i32]* %6, i64 0, i64 %268
  %270 = load i32, i32* %269, align 4
  %271 = load i32, i32* %9, align 4
  %272 = sext i32 %271 to i64
  %273 = getelementptr inbounds [101 x double], [101 x double]* %10, i64 0, i64 %272
  %274 = load double, double* %273, align 8
  %275 = call i32 (i8*, ...) @printf(i8* getelementptr inbounds ([29 x i8], [29 x i8]* @.str.2, i64 0, i64 0), i32 %235, i32 %242, i32 %249, i32 %256, i32 %263, i32 %270, double %274)
  br label %276

276:                                              ; preds = %228
  %277 = load i32, i32* %9, align 4
  %278 = add nsw i32 %277, 1
  store i32 %278, i32* %9, align 4
  br label %224

279:                                              ; preds = %224
  ret i32 0
}

declare dso_local i32 @__isoc99_scanf(i8*, ...) #1

; Function Attrs: nounwind
declare dso_local double @sqrt(double) #2

declare dso_local i32 @printf(i8*, ...) #1


!llvm.module.flags = !{!0}
!llvm.ident = !{!1}

!0 = !{i32 1, !"wchar_size", i32 4}
!1 = !{!"clang version 10.0.0-4ubuntu1 "}
